target datalayout = "e-m:e-p270:32:32-p271:32:32-p272:64:64-i64:64-i128:128-f80:128-n8:16:32:64-S128"
target triple = "x86_64-pc-linux-gnu"

%struct.slurmd_config = type { ptr, ptr, i32, [4096 x i8], ptr, ptr, ptr, ptr, i16, i16, i16, i16, ptr, i16, i64, i16, i16, i16, i16, i16, i16, i16, i16, i16, i16, i16, i64, i64, i32, i32, i16, ptr, ptr, ptr, i32, ptr, ptr, ptr, ptr, ptr, ptr, ptr, ptr, ptr, ptr, i32, ptr, ptr, i16, i32, i32, %struct.log_options_t, i32, i16, i64, i8, i8, i8, i8, i8, %union.pthread_mutex_t, i16, ptr, %union.pthread_cond_t, ptr, %union.pthread_cond_t, i8, i8, ptr, ptr }
%struct.log_options_t = type { i32, i32, i32, i8, i8, i8, i32 }
%union.pthread_mutex_t = type { %struct.__pthread_mutex_s }
%struct.__pthread_mutex_s = type { i32, i32, i32, i32, i32, i16, i16, %struct.__pthread_internal_list }
%struct.__pthread_internal_list = type { ptr, ptr }
%union.pthread_cond_t = type { %struct.__pthread_cond_s }
%struct.__pthread_cond_s = type { %union.__atomic_wide_counter, %union.__atomic_wide_counter, [2 x i32], [2 x i32], i32, i32, [2 x i32] }
%union.__atomic_wide_counter = type { i64 }

@conf = external global ptr, align 8
@.str.14 = private unnamed_addr constant [11 x i8] c"xcpuinfo.c\00", align 1
@xcpuinfo_abs_to_mac.total_cores = internal global i32 -1, align 4
@xcpuinfo_abs_to_mac.total_cpus = internal global i32 -1, align 4
@__func__.xcpuinfo_abs_to_mac = private unnamed_addr constant [20 x i8] c"xcpuinfo_abs_to_mac\00", align 1
@.str.24 = private unnamed_addr constant [11 x i8] c"%s: failed\00", align 1

; Function Attrs: nounwind uwtable
define dso_local i32 @xcpuinfo_abs_to_mac(ptr noundef %0, ptr noundef %1) #0 {
  %3 = alloca ptr, align 8
  %4 = alloca ptr, align 8
  %5 = alloca ptr, align 8
  %6 = alloca ptr, align 8
  %7 = alloca i32, align 4
  %8 = alloca i32, align 4
  %9 = alloca i32, align 4
  %10 = alloca i32, align 4
  %11 = alloca i32, align 4
  store ptr %0, ptr %3, align 8
  store ptr %1, ptr %4, align 8
  call void @llvm.lifetime.start.p0(i64 8, ptr %5) #9
  store ptr null, ptr %5, align 8
  call void @llvm.lifetime.start.p0(i64 8, ptr %6) #9
  store ptr null, ptr %6, align 8
  call void @llvm.lifetime.start.p0(i64 4, ptr %7) #9
  call void @llvm.lifetime.start.p0(i64 4, ptr %8) #9
  call void @llvm.lifetime.start.p0(i64 4, ptr %9) #9
  call void @llvm.lifetime.start.p0(i64 4, ptr %10) #9
  call void @llvm.lifetime.start.p0(i64 4, ptr %11) #9
  store i32 0, ptr %11, align 4
  %12 = load i32, ptr @xcpuinfo_abs_to_mac.total_cores, align 4
  %13 = icmp eq i32 %12, -1
  br i1 %13, label %14, label %28

14:                                               ; preds = %2
  %15 = load ptr, ptr @conf, align 8
  %16 = getelementptr inbounds nuw %struct.slurmd_config, ptr %15, i32 0, i32 10
  %17 = load i16, ptr %16, align 4
  %18 = zext i16 %17 to i32
  %19 = load ptr, ptr @conf, align 8
  %20 = getelementptr inbounds nuw %struct.slurmd_config, ptr %19, i32 0, i32 15
  %21 = load i16, ptr %20, align 8
  %22 = zext i16 %21 to i32
  %23 = mul nsw i32 %18, %22
  store i32 %23, ptr @xcpuinfo_abs_to_mac.total_cores, align 4
  %24 = load ptr, ptr @conf, align 8
  %25 = getelementptr inbounds nuw %struct.slurmd_config, ptr %24, i32 0, i32 30
  %26 = load i16, ptr %25, align 8
  %27 = zext i16 %26 to i32
  store i32 %27, ptr @xcpuinfo_abs_to_mac.total_cpus, align 4
  br label %28

28:                                               ; preds = %14, %2
  %29 = load i32, ptr @xcpuinfo_abs_to_mac.total_cores, align 4
  %30 = sext i32 %29 to i64
  %31 = call ptr @bit_alloc(i64 noundef %30)
  store ptr %31, ptr %5, align 8
  %32 = load i32, ptr @xcpuinfo_abs_to_mac.total_cpus, align 4
  %33 = sext i32 %32 to i64
  %34 = call ptr @bit_alloc(i64 noundef %33)
  store ptr %34, ptr %6, align 8
  %35 = load ptr, ptr %5, align 8
  %36 = icmp ne ptr %35, null
  br i1 %36, label %37, label %40

37:                                               ; preds = %28
  %38 = load ptr, ptr %6, align 8
  %39 = icmp ne ptr %38, null
  br i1 %39, label %41, label %40

40:                                               ; preds = %37, %28
  store i32 -1, ptr %11, align 4
  br label %112

41:                                               ; preds = %37
  %42 = load ptr, ptr %5, align 8
  %43 = load ptr, ptr %3, align 8
  %44 = call i32 @bit_unfmt(ptr noundef %42, ptr noundef %43)
  %45 = icmp ne i32 %44, 0
  br i1 %45, label %46, label %47

46:                                               ; preds = %41
  store i32 -1, ptr %11, align 4
  br label %112

47:                                               ; preds = %41
  store i32 0, ptr %7, align 4
  br label %48

48:                                               ; preds = %97, %47
  %49 = load i32, ptr %7, align 4
  %50 = load i32, ptr @xcpuinfo_abs_to_mac.total_cores, align 4
  %51 = icmp slt i32 %49, %50
  br i1 %51, label %52, label %100

52:                                               ; preds = %48
  %53 = load ptr, ptr %5, align 8
  %54 = load i32, ptr %7, align 4
  %55 = sext i32 %54 to i64
  %56 = call i32 @slurm_bit_test(ptr noundef %53, i64 noundef %55)
  %57 = icmp ne i32 %56, 0
  br i1 %57, label %58, label %96

58:                                               ; preds = %52
  store i32 0, ptr %8, align 4
  br label %59

59:                                               ; preds = %92, %58
  %60 = load i32, ptr %8, align 4
  %61 = load ptr, ptr @conf, align 8
  %62 = getelementptr inbounds nuw %struct.slurmd_config, ptr %61, i32 0, i32 11
  %63 = load i16, ptr %62, align 2
  %64 = zext i16 %63 to i32
  %65 = icmp slt i32 %60, %64
  br i1 %65, label %66, label %95

66:                                               ; preds = %59
  %67 = load i32, ptr %7, align 4
  %68 = load ptr, ptr @conf, align 8
  %69 = getelementptr inbounds nuw %struct.slurmd_config, ptr %68, i32 0, i32 25
  %70 = load i16, ptr %69, align 4
  %71 = zext i16 %70 to i32
  %72 = mul nsw i32 %67, %71
  %73 = load i32, ptr %8, align 4
  %74 = add nsw i32 %72, %73
  store i32 %74, ptr %9, align 4
  %75 = load i32, ptr @xcpuinfo_abs_to_mac.total_cpus, align 4
  %76 = load i32, ptr %9, align 4
  %77 = srem i32 %76, %75
  store i32 %77, ptr %9, align 4
  %78 = load ptr, ptr @conf, align 8
  %79 = getelementptr inbounds nuw %struct.slurmd_config, ptr %78, i32 0, i32 31
  %80 = load ptr, ptr %79, align 8
  %81 = load i32, ptr %9, align 4
  %82 = sext i32 %81 to i64
  %83 = getelementptr inbounds i16, ptr %80, i64 %82
  %84 = load i16, ptr %83, align 2
  %85 = zext i16 %84 to i32
  store i32 %85, ptr %10, align 4
  %86 = load i32, ptr @xcpuinfo_abs_to_mac.total_cpus, align 4
  %87 = load i32, ptr %10, align 4
  %88 = srem i32 %87, %86
  store i32 %88, ptr %10, align 4
  %89 = load ptr, ptr %6, align 8
  %90 = load i32, ptr %10, align 4
  %91 = sext i32 %90 to i64
  call void @bit_set(ptr noundef %89, i64 noundef %91)
  br label %92

92:                                               ; preds = %66
  %93 = load i32, ptr %8, align 4
  %94 = add nsw i32 %93, 1
  store i32 %94, ptr %8, align 4
  br label %59, !llvm.loop !24

95:                                               ; preds = %59
  br label %96

96:                                               ; preds = %95, %52
  br label %97

97:                                               ; preds = %96
  %98 = load i32, ptr %7, align 4
  %99 = add nsw i32 %98, 1
  store i32 %99, ptr %7, align 4
  br label %48, !llvm.loop !25

100:                                              ; preds = %48
  %101 = load i32, ptr @xcpuinfo_abs_to_mac.total_cpus, align 4
  %102 = mul nsw i32 %101, 6
  %103 = sext i32 %102 to i64
  %104 = call ptr @slurm_xcalloc(i64 noundef 1, i64 noundef %103, i1 noundef zeroext true, i1 noundef zeroext false, ptr noundef @.str.14, i32 noundef 1206, ptr noundef @__func__.xcpuinfo_abs_to_mac)
  %105 = load ptr, ptr %4, align 8
  store ptr %104, ptr %105, align 8
  %106 = load ptr, ptr %4, align 8
  %107 = load ptr, ptr %106, align 8
  %108 = load i32, ptr @xcpuinfo_abs_to_mac.total_cpus, align 4
  %109 = mul nsw i32 %108, 6
  %110 = load ptr, ptr %6, align 8
  %111 = call ptr @bit_fmt(ptr noundef %107, i32 noundef %109, ptr noundef %110)
  br label %112

112:                                              ; preds = %100, %46, %40
  br label %113

113:                                              ; preds = %112
  %114 = load ptr, ptr %5, align 8
  %115 = icmp ne ptr %114, null
  br i1 %115, label %116, label %117

116:                                              ; preds = %113
  call void @slurm_bit_free(ptr noundef %5)
  br label %117

117:                                              ; preds = %116, %113
  store ptr null, ptr %5, align 8
  br label %118

118:                                              ; preds = %117
  br label %119

119:                                              ; preds = %118
  br label %120

120:                                              ; preds = %119
  %121 = load ptr, ptr %6, align 8
  %122 = icmp ne ptr %121, null
  br i1 %122, label %123, label %124

123:                                              ; preds = %120
  call void @slurm_bit_free(ptr noundef %6)
  br label %124

124:                                              ; preds = %123, %120
  store ptr null, ptr %6, align 8
  br label %125

125:                                              ; preds = %124
  br label %126

126:                                              ; preds = %125
  %127 = load i32, ptr %11, align 4
  %128 = icmp ne i32 %127, 0
  br i1 %128, label %129, label %131

129:                                              ; preds = %126
  %130 = call i32 (ptr, ...) @error(ptr noundef @.str.24, ptr noundef @__func__.xcpuinfo_abs_to_mac)
  br label %131

131:                                              ; preds = %129, %126
  %132 = load i32, ptr %11, align 4
  call void @llvm.lifetime.end.p0(i64 4, ptr %11) #9
  call void @llvm.lifetime.end.p0(i64 4, ptr %10) #9
  call void @llvm.lifetime.end.p0(i64 4, ptr %9) #9
  call void @llvm.lifetime.end.p0(i64 4, ptr %8) #9
  call void @llvm.lifetime.end.p0(i64 4, ptr %7) #9
  call void @llvm.lifetime.end.p0(i64 8, ptr %6) #9
  call void @llvm.lifetime.end.p0(i64 8, ptr %5) #9
  ret i32 %132
}