; Function Attrs: nounwind uwtable
define dso_local range(i32 -1, 1) i32 @xcpuinfo_abs_to_mac(ptr noundef %0, ptr noundef writeonly captures(none) %1) local_unnamed_addr #0 {
  %3 = alloca ptr, align 8
  %4 = alloca ptr, align 8
  call void @llvm.lifetime.start.p0(i64 8, ptr nonnull %3) #12
  call void @llvm.lifetime.start.p0(i64 8, ptr nonnull %4) #12
  %5 = load i32, ptr @xcpuinfo_abs_to_mac.total_cores, align 4
  %6 = icmp eq i32 %5, -1
  br i1 %6, label %7, label %19

7:                                                ; preds = %2
  %8 = load ptr, ptr @conf, align 8
  %9 = getelementptr inbounds nuw i8, ptr %8, i64 4156
  %10 = load i16, ptr %9, align 4
  %11 = zext i16 %10 to i32
  %12 = getelementptr inbounds nuw i8, ptr %8, i64 4184
  %13 = load i16, ptr %12, align 8
  %14 = zext i16 %13 to i32
  %15 = mul nuw nsw i32 %14, %11
  store i32 %15, ptr @xcpuinfo_abs_to_mac.total_cores, align 4
  %16 = getelementptr inbounds nuw i8, ptr %8, i64 4232
  %17 = load i16, ptr %16, align 8
  %18 = zext i16 %17 to i32
  store i32 %18, ptr @xcpuinfo_abs_to_mac.total_cpus, align 4
  br label %19

19:                                               ; preds = %7, %2
  %20 = phi i32 [ %15, %7 ], [ %5, %2 ]
  %21 = sext i32 %20 to i64
  %22 = tail call ptr @bit_alloc(i64 noundef %21) #12
  store ptr %22, ptr %3, align 8
  %23 = load i32, ptr @xcpuinfo_abs_to_mac.total_cpus, align 4
  %24 = sext i32 %23 to i64
  %25 = tail call ptr @bit_alloc(i64 noundef %24) #12
  store ptr %25, ptr %4, align 8
  %26 = icmp ne ptr %22, null
  %27 = icmp ne ptr %25, null
  %or.cond = select i1 %26, i1 %27, i1 false
  br i1 %or.cond, label %28, label %thread-pre-split

28:                                               ; preds = %19
  %29 = tail call i32 @bit_unfmt(ptr noundef nonnull %22, ptr noundef %0) #12
  %.not = icmp eq i32 %29, 0
  br i1 %.not, label %.preheader23, label %thread-pre-split.thread

.preheader23:                                     ; preds = %28
  %30 = load i32, ptr @xcpuinfo_abs_to_mac.total_cores, align 4
  %31 = icmp sgt i32 %30, 0
  br i1 %31, label %.lr.ph27, label %._crit_edge

.lr.ph27:                                         ; preds = %.preheader23, %.loopexit
  %indvars.iv = phi i64 [ %indvars.iv.next, %.loopexit ], [ 0, %.preheader23 ]
  %32 = tail call i32 @slurm_bit_test(ptr noundef nonnull %22, i64 noundef %indvars.iv) #12
  %.not19 = icmp eq i32 %32, 0
  br i1 %.not19, label %.loopexit, label %.preheader

.preheader:                                       ; preds = %.lr.ph27
  %33 = load ptr, ptr @conf, align 8
  %34 = getelementptr inbounds nuw i8, ptr %33, i64 4158
  %35 = load i16, ptr %34, align 2
  %.not28 = icmp eq i16 %35, 0
  br i1 %.not28, label %.loopexit, label %.lr.ph.preheader

.lr.ph.preheader:                                 ; preds = %.preheader
  %36 = trunc nuw nsw i64 %indvars.iv to i32
  br label %.lr.ph

.lr.ph:                                           ; preds = %.lr.ph.preheader, %.lr.ph
  %37 = phi ptr [ %54, %.lr.ph ], [ %33, %.lr.ph.preheader ]
  %.01724 = phi i32 [ %53, %.lr.ph ], [ 0, %.lr.ph.preheader ]
  %38 = getelementptr inbounds nuw i8, ptr %37, i64 4204
  %39 = load i16, ptr %38, align 4
  %40 = zext i16 %39 to i32
  %41 = mul nuw nsw i32 %36, %40
  %42 = add nuw nsw i32 %41, %.01724
  %43 = load i32, ptr @xcpuinfo_abs_to_mac.total_cpus, align 4
  %44 = srem i32 %42, %43
  %45 = getelementptr inbounds nuw i8, ptr %37, i64 4240
  %46 = load ptr, ptr %45, align 8
  %47 = zext nneg i32 %44 to i64
  %48 = getelementptr inbounds nuw i16, ptr %46, i64 %47
  %49 = load i16, ptr %48, align 2
  %50 = zext i16 %49 to i32
  %51 = srem i32 %50, %43
  %52 = zext nneg i32 %51 to i64
  tail call void @bit_set(ptr noundef nonnull %25, i64 noundef %52) #12
  %53 = add nuw nsw i32 %.01724, 1
  %54 = load ptr, ptr @conf, align 8
  %55 = getelementptr inbounds nuw i8, ptr %54, i64 4158
  %56 = load i16, ptr %55, align 2
  %57 = zext i16 %56 to i32
  %58 = icmp samesign ult i32 %53, %57
  br i1 %58, label %.lr.ph, label %.loopexit, !llvm.loop !25

.loopexit:                                        ; preds = %.lr.ph, %.preheader, %.lr.ph27
  %indvars.iv.next = add nuw nsw i64 %indvars.iv, 1
  %59 = load i32, ptr @xcpuinfo_abs_to_mac.total_cores, align 4
  %60 = sext i32 %59 to i64
  %61 = icmp slt i64 %indvars.iv.next, %60
  br i1 %61, label %.lr.ph27, label %._crit_edge, !llvm.loop !26

._crit_edge:                                      ; preds = %.loopexit, %.preheader23
  %62 = load i32, ptr @xcpuinfo_abs_to_mac.total_cpus, align 4
  %63 = mul nsw i32 %62, 6
  %64 = sext i32 %63 to i64
  %65 = tail call ptr @slurm_xcalloc(i64 noundef 1, i64 noundef %64, i1 noundef zeroext true, i1 noundef zeroext false, ptr noundef nonnull @.str.14, i32 noundef 1206, ptr noundef nonnull @__func__.xcpuinfo_abs_to_mac) #12
  store ptr %65, ptr %1, align 8
  %66 = load i32, ptr @xcpuinfo_abs_to_mac.total_cpus, align 4
  %67 = mul nsw i32 %66, 6
  %68 = tail call ptr @bit_fmt(ptr noundef %65, i32 noundef %67, ptr noundef nonnull %25) #12
  br label %thread-pre-split

thread-pre-split:                                 ; preds = %._crit_edge, %19
  %.0 = phi i32 [ -1, %19 ], [ 0, %._crit_edge ]
  %.not20 = icmp eq ptr %22, null
  br i1 %.not20, label %69, label %thread-pre-split.thread

thread-pre-split.thread:                          ; preds = %28, %thread-pre-split
  %.035 = phi i32 [ %.0, %thread-pre-split ], [ -1, %28 ]
  %.not2233 = phi i1 [ %or.cond, %thread-pre-split ], [ false, %28 ]
  call void @slurm_bit_free(ptr noundef nonnull %3) #12
  br label %69

69:                                               ; preds = %thread-pre-split.thread, %thread-pre-split
  %.036 = phi i32 [ %.035, %thread-pre-split.thread ], [ %.0, %thread-pre-split ]
  %.not2234 = phi i1 [ %.not2233, %thread-pre-split.thread ], [ %or.cond, %thread-pre-split ]
  store ptr null, ptr %3, align 8
  %.not21 = icmp eq ptr %25, null
  br i1 %.not21, label %71, label %70

70:                                               ; preds = %69
  call void @slurm_bit_free(ptr noundef nonnull %4) #12
  br label %71

71:                                               ; preds = %70, %69
  store ptr null, ptr %4, align 8
  br i1 %.not2234, label %74, label %72

72:                                               ; preds = %71
  %73 = call i32 (ptr, ...) @error(ptr noundef nonnull @.str.24, ptr noundef nonnull @__func__.xcpuinfo_abs_to_mac) #12
  br label %74

74:                                               ; preds = %72, %71
  call void @llvm.lifetime.end.p0(i64 8, ptr nonnull %4) #12
  call void @llvm.lifetime.end.p0(i64 8, ptr nonnull %3) #12
  ret i32 %.036
}